target datalayout = "e-m:e-p270:32:32-p271:32:32-p272:64:64-i64:64-i128:128-f80:128-n8:16:32:64-S128"
target triple = "x86_64-pc-linux-gnu"

%struct.__va_list_tag = type { i32, i32, ptr, ptr }

; Function Attrs: mustprogress nounwind uwtable
define dso_local void @_Z7WarningPKcz(ptr noundef %0, ...) #5 {
  %2 = alloca ptr, align 8
  %3 = alloca [1 x %struct.__va_list_tag], align 16
  store ptr %0, ptr %2, align 8, !tbaa !4
  call void @llvm.lifetime.start.p0(i64 24, ptr %3) #21
  %4 = getelementptr inbounds [1 x %struct.__va_list_tag], ptr %3, i64 0, i64 0
  call void @llvm.va_start.p0(ptr %4)
  %5 = load ptr, ptr %2, align 8, !tbaa !4
  %6 = getelementptr inbounds [1 x %struct.__va_list_tag], ptr %3, i64 0, i64 0
  call void @_Z7WarningPKcP13__va_list_tag(ptr noundef %5, ptr noundef %6)
  %7 = getelementptr inbounds [1 x %struct.__va_list_tag], ptr %3, i64 0, i64 0
  call void @llvm.va_end.p0(ptr %7)
  call void @llvm.lifetime.end.p0(i64 24, ptr %3) #21
  ret void
}