; Function Attrs: cold mustprogress nofree nounwind uwtable
define dso_local void @_Z7WarningPKcz(ptr noundef readonly captures(none) %0, ...) local_unnamed_addr #5 {
  %2 = alloca [1 x %struct.__va_list_tag], align 16
  call void @llvm.lifetime.start.p0(i64 24, ptr nonnull %2) #32
  call void @llvm.va_start.p0(ptr nonnull %2)
  call void @_Z7WarningPKcP13__va_list_tag(ptr noundef %0, ptr noundef nonnull %2)
  call void @llvm.va_end.p0(ptr nonnull %2)
  call void @llvm.lifetime.end.p0(i64 24, ptr nonnull %2) #32
  ret void
}